target datalayout = "e-m:e-p270:32:32-p271:32:32-p272:64:64-i64:64-i128:128-f80:128-n8:16:32:64-S128"
target triple = "x86_64-pc-linux-gnu"

%"class.absl::lts_20240722::Status" = type { i64 }
%class.anon.79 = type { %"class.grpc_core::RefCountedPtr", ptr }
%"class.grpc_core::RefCountedPtr" = type { ptr }

; Function Attrs: mustprogress nounwind uwtable
define linkonce_odr void @_ZN4absl12lts_202407226StatusC2Em(ptr noundef nonnull align 8 dereferenceable(8) %0, i64 noundef %1) unnamed_addr #7 comdat align 2 {
  %3 = alloca ptr, align 8
  %4 = alloca i64, align 8
  store ptr %0, ptr %3, align 8, !tbaa !43
  store i64 %1, ptr %4, align 8, !tbaa !30
  %5 = load ptr, ptr %3, align 8
  %6 = getelementptr inbounds nuw %"class.absl::lts_20240722::Status", ptr %5, i32 0, i32 0
  %7 = load i64, ptr %4, align 8, !tbaa !30
  store i64 %7, ptr %6, align 8, !tbaa !45
  ret void
}

; Function Attrs: mustprogress nounwind uwtable
define linkonce_odr noundef i64 @_ZN4absl12lts_202407226Status16CodeToInlinedRepENS0_10StatusCodeE(i32 noundef %0) #7 comdat align 2 {
  %2 = alloca i32, align 4
  store i32 %0, ptr %2, align 4, !tbaa !358
  %3 = load i32, ptr %2, align 4, !tbaa !358
  %4 = sext i32 %3 to i64
  %5 = shl i64 %4, 2
  %6 = add i64 %5, 1
  ret i64 %6
}

; Function Attrs: inlinehint mustprogress uwtable
define linkonce_odr void @_ZN4absl12lts_202407226StatusC2ENS0_10StatusCodeE(ptr noundef nonnull align 8 dereferenceable(8) %0, i32 noundef %1) unnamed_addr #12 comdat align 2 {
  %3 = alloca ptr, align 8
  %4 = alloca i32, align 4
  store ptr %0, ptr %3, align 8, !tbaa !43
  store i32 %1, ptr %4, align 4, !tbaa !358
  %5 = load ptr, ptr %3, align 8
  %6 = load i32, ptr %4, align 4, !tbaa !358
  %7 = call noundef i64 @_ZN4absl12lts_202407226Status16CodeToInlinedRepENS0_10StatusCodeE(i32 noundef %6)
  call void @_ZN4absl12lts_202407226StatusC2Em(ptr noundef nonnull align 8 dereferenceable(8) %5, i64 noundef %7)
  ret void
}

; Function Attrs: inlinehint mustprogress uwtable
define linkonce_odr void @_ZN4absl12lts_202407226StatusC2Ev(ptr noundef nonnull align 8 dereferenceable(8) %0) unnamed_addr #12 comdat align 2 {
  %2 = alloca ptr, align 8
  store ptr %0, ptr %2, align 8, !tbaa !43
  %3 = load ptr, ptr %2, align 8
  call void @_ZN4absl12lts_202407226StatusC2ENS0_10StatusCodeE(ptr noundef nonnull align 8 dereferenceable(8) %3, i32 noundef 0)
  ret void
}

; Function Attrs: inlinehint mustprogress uwtable
define linkonce_odr void @_ZN4absl12lts_202407228OkStatusEv(ptr dead_on_unwind noalias writable sret(%"class.absl::lts_20240722::Status") align 8 %0) #12 comdat {
  %2 = alloca ptr, align 8
  store ptr %0, ptr %2, align 8
  call void @_ZN4absl12lts_202407226StatusC2Ev(ptr noundef nonnull align 8 dereferenceable(8) %0)
  ret void
}

; Function Attrs: mustprogress nounwind uwtable
define linkonce_odr noundef ptr @_ZNK9grpc_core13RefCountedPtrIN17grpc_event_engine12experimental30RefCountedDNSResolverInterfaceEE3getEv(ptr noundef nonnull align 8 dereferenceable(8) %0) #7 comdat align 2 {
  %2 = alloca ptr, align 8
  store ptr %0, ptr %2, align 8, !tbaa !527
  %3 = load ptr, ptr %2, align 8
  %4 = getelementptr inbounds nuw %"class.grpc_core::RefCountedPtr", ptr %3, i32 0, i32 0
  %5 = load ptr, ptr %4, align 8, !tbaa !529
  ret ptr %5
}

; Function Attrs: inlinehint mustprogress uwtable
define internal void @"_ZZN17grpc_event_engine12experimental12AresResolver18CheckSocketsLockedEvEN3$_0clEv"(ptr noundef nonnull align 8 dereferenceable(16) %0) #12 align 2 personality ptr @__gxx_personality_v0 {
  %2 = alloca ptr, align 8
  %3 = alloca %"class.absl::lts_20240722::Status", align 8
  %4 = alloca ptr, align 8
  %5 = alloca i32, align 4
  store ptr %0, ptr %2, align 8, !tbaa !24
  %6 = load ptr, ptr %2, align 8
  %7 = getelementptr inbounds nuw %class.anon.79, ptr %6, i32 0, i32 0
  %8 = call noundef ptr @_ZNK9grpc_core13RefCountedPtrIN17grpc_event_engine12experimental30RefCountedDNSResolverInterfaceEE3getEv(ptr noundef nonnull align 8 dereferenceable(8) %7)
  %9 = getelementptr inbounds nuw %class.anon.79, ptr %6, i32 0, i32 1
  %10 = load ptr, ptr %9, align 8, !tbaa !230
  call void @_ZN4absl12lts_202407228OkStatusEv(ptr dead_on_unwind writable sret(%"class.absl::lts_20240722::Status") align 8 %3)
  invoke void @_ZN17grpc_event_engine12experimental12AresResolver10OnReadableEPNS1_6FdNodeEN4absl12lts_202407226StatusE(ptr noundef nonnull align 8 dereferenceable(152) %8, ptr noundef %10, ptr noundef %3)
          to label %11 unwind label %12

11:                                               ; preds = %1
  call void @_ZN4absl12lts_202407226StatusD2Ev(ptr noundef nonnull align 8 dereferenceable(8) %3) #3
  ret void

12:                                               ; preds = %1
  %13 = landingpad { ptr, i32 }
          cleanup
  %14 = extractvalue { ptr, i32 } %13, 0
  store ptr %14, ptr %4, align 8
  %15 = extractvalue { ptr, i32 } %13, 1
  store i32 %15, ptr %5, align 4
  call void @_ZN4absl12lts_202407226StatusD2Ev(ptr noundef nonnull align 8 dereferenceable(8) %3) #3
  br label %16

16:                                               ; preds = %12
  %17 = load ptr, ptr %4, align 8
  %18 = load i32, ptr %5, align 4
  %19 = insertvalue { ptr, i32 } poison, ptr %17, 0
  %20 = insertvalue { ptr, i32 } %19, i32 %18, 1
  resume { ptr, i32 } %20
}

; Function Attrs: mustprogress uwtable
define internal void @"_ZSt13__invoke_implIvRZN17grpc_event_engine12experimental12AresResolver18CheckSocketsLockedEvE3$_0JEET_St14__invoke_otherOT0_DpOT1_"(ptr noundef nonnull align 8 dereferenceable(16) %0) #4 {
  %2 = alloca ptr, align 8
  store ptr %0, ptr %2, align 8, !tbaa !24
  %3 = load ptr, ptr %2, align 8, !tbaa !24
  call void @"_ZZN17grpc_event_engine12experimental12AresResolver18CheckSocketsLockedEvEN3$_0clEv"(ptr noundef nonnull align 8 dereferenceable(16) %3)
  ret void
}

; Function Attrs: mustprogress uwtable
define internal void @"_ZSt8__invokeIRZN17grpc_event_engine12experimental12AresResolver18CheckSocketsLockedEvE3$_0JEENSt15__invoke_resultIT_JDpT0_EE4typeEOS6_DpOS7_"(ptr noundef nonnull align 8 dereferenceable(16) %0) #4 {
  %2 = alloca ptr, align 8
  store ptr %0, ptr %2, align 8, !tbaa !24
  %3 = load ptr, ptr %2, align 8, !tbaa !24
  call void @"_ZSt13__invoke_implIvRZN17grpc_event_engine12experimental12AresResolver18CheckSocketsLockedEvE3$_0JEET_St14__invoke_otherOT0_DpOT1_"(ptr noundef nonnull align 8 dereferenceable(16) %3)
  ret void
}

; Function Attrs: inlinehint mustprogress uwtable
define internal void @"_ZSt6invokeIRZN17grpc_event_engine12experimental12AresResolver18CheckSocketsLockedEvE3$_0JEENSt13invoke_resultIT_JDpT0_EE4typeEOS6_DpOS7_"(ptr noundef nonnull align 8 dereferenceable(16) %0) #12 {
  %2 = alloca ptr, align 8
  store ptr %0, ptr %2, align 8, !tbaa !24
  %3 = load ptr, ptr %2, align 8, !tbaa !24
  call void @"_ZSt8__invokeIRZN17grpc_event_engine12experimental12AresResolver18CheckSocketsLockedEvE3$_0JEENSt15__invoke_resultIT_JDpT0_EE4typeEOS6_DpOS7_"(ptr noundef nonnull align 8 dereferenceable(16) %3)
  ret void
}

; Function Attrs: mustprogress nounwind uwtable
define internal noundef ptr @"_ZSt7launderIZN17grpc_event_engine12experimental12AresResolver18CheckSocketsLockedEvE3$_0EPT_S5_"(ptr noundef %0) #7 {
  %2 = alloca ptr, align 8
  store ptr %0, ptr %2, align 8, !tbaa !24
  %3 = load ptr, ptr %2, align 8, !tbaa !24
  ret ptr %3
}

; Function Attrs: mustprogress uwtable
define internal void @"_ZN4absl12lts_2024072222internal_any_invocable7InvokeRIvRZN17grpc_event_engine12experimental12AresResolver18CheckSocketsLockedEvE3$_0JEvEEvOT0_DpOT1_"(ptr noundef nonnull align 8 dereferenceable(16) %0) #4 {
  %2 = alloca ptr, align 8
  store ptr %0, ptr %2, align 8, !tbaa !24
  %3 = load ptr, ptr %2, align 8, !tbaa !24
  call void @"_ZSt6invokeIRZN17grpc_event_engine12experimental12AresResolver18CheckSocketsLockedEvE3$_0JEENSt13invoke_resultIT_JDpT0_EE4typeEOS6_DpOS7_"(ptr noundef nonnull align 8 dereferenceable(16) %3)
  ret void
}

; Function Attrs: mustprogress nounwind uwtable
define internal noundef nonnull align 8 dereferenceable(16) ptr @"_ZN4absl12lts_2024072222internal_any_invocable20ObjectInLocalStorageIZN17grpc_event_engine12experimental12AresResolver18CheckSocketsLockedEvE3$_0EERT_PNS1_15TypeErasedStateE"(ptr noundef %0) #7 {
  %2 = alloca ptr, align 8
  store ptr %0, ptr %2, align 8, !tbaa !509
  %3 = load ptr, ptr %2, align 8, !tbaa !509
  %4 = call noundef ptr @"_ZSt7launderIZN17grpc_event_engine12experimental12AresResolver18CheckSocketsLockedEvE3$_0EPT_S5_"(ptr noundef %3) #3
  ret ptr %4
}

; Function Attrs: mustprogress uwtable
define internal void @"_ZN4absl12lts_2024072222internal_any_invocable12LocalInvokerILb0EvRZN17grpc_event_engine12experimental12AresResolver18CheckSocketsLockedEvE3$_0JEEET0_PNS1_15TypeErasedStateEDpNS1_18ForwardedParameterIT2_E4typeE"(ptr noundef %0) #4 {
  %2 = alloca ptr, align 8
  %3 = alloca ptr, align 8
  store ptr %0, ptr %2, align 8, !tbaa !509
  call void @llvm.lifetime.start.p0(i64 8, ptr %3) #3
  %4 = load ptr, ptr %2, align 8, !tbaa !509
  %5 = call noundef nonnull align 8 dereferenceable(16) ptr @"_ZN4absl12lts_2024072222internal_any_invocable20ObjectInLocalStorageIZN17grpc_event_engine12experimental12AresResolver18CheckSocketsLockedEvE3$_0EERT_PNS1_15TypeErasedStateE"(ptr noundef %4)
  store ptr %5, ptr %3, align 8, !tbaa !24
  %6 = load ptr, ptr %3, align 8, !tbaa !24
  call void @"_ZN4absl12lts_2024072222internal_any_invocable7InvokeRIvRZN17grpc_event_engine12experimental12AresResolver18CheckSocketsLockedEvE3$_0JEvEEvOT0_DpOT1_"(ptr noundef nonnull align 8 dereferenceable(16) %6)
  call void @llvm.lifetime.end.p0(i64 8, ptr %3) #3
  ret void
}