; Function Attrs: mustprogress uwtable
define internal void @"_ZN4absl12lts_2024072222internal_any_invocable12LocalInvokerILb0EvRZN17grpc_event_engine12experimental12AresResolver18CheckSocketsLockedEvE3$_0JEEET0_PNS1_15TypeErasedStateEDpNS1_18ForwardedParameterIT2_E4typeE"(ptr noundef readonly captures(none) %0) #3 personality ptr @__gxx_personality_v0 {
  %2 = alloca %"class.absl::lts_20240722::Status", align 8
  %.val = load ptr, ptr %0, align 8, !tbaa !221
  %3 = getelementptr i8, ptr %0, i64 8
  %.val2 = load ptr, ptr %3, align 8, !tbaa !224
  call void @llvm.lifetime.start.p0(i64 8, ptr nonnull %2)
  store i64 1, ptr %2, align 8, !tbaa !18, !alias.scope !389
  invoke void @_ZN17grpc_event_engine12experimental12AresResolver10OnReadableEPNS1_6FdNodeEN4absl12lts_202407226StatusE(ptr noundef nonnull align 8 dereferenceable(152) %.val, ptr noundef %.val2, ptr noundef nonnull %2)
          to label %4 unwind label %12

4:                                                ; preds = %1
  %5 = load i64, ptr %2, align 8, !tbaa !18
  %6 = and i64 %5, 1
  %.not.i.i.i.i.i.i.i = icmp eq i64 %6, 0
  br i1 %.not.i.i.i.i.i.i.i, label %7, label %"_ZN4absl12lts_2024072222internal_any_invocable7InvokeRIvRZN17grpc_event_engine12experimental12AresResolver18CheckSocketsLockedEvE3$_0JEvEEvOT0_DpOT1_.exit"

7:                                                ; preds = %4
  %8 = inttoptr i64 %5 to ptr
  invoke void @_ZNK4absl12lts_2024072215status_internal9StatusRep5UnrefEv(ptr noundef nonnull align 8 dereferenceable(48) %8)
          to label %"_ZN4absl12lts_2024072222internal_any_invocable7InvokeRIvRZN17grpc_event_engine12experimental12AresResolver18CheckSocketsLockedEvE3$_0JEvEEvOT0_DpOT1_.exit" unwind label %9

9:                                                ; preds = %7
  %10 = landingpad { ptr, i32 }
          catch ptr null
  %11 = extractvalue { ptr, i32 } %10, 0
  call void @__clang_call_terminate(ptr %11) #37
  unreachable

12:                                               ; preds = %1
  %13 = landingpad { ptr, i32 }
          cleanup
  call void @_ZN4absl12lts_202407226StatusD2Ev(ptr noundef nonnull align 8 dereferenceable(8) %2) #34
  resume { ptr, i32 } %13

"_ZN4absl12lts_2024072222internal_any_invocable7InvokeRIvRZN17grpc_event_engine12experimental12AresResolver18CheckSocketsLockedEvE3$_0JEvEEvOT0_DpOT1_.exit": ; preds = %4, %7
  call void @llvm.lifetime.end.p0(i64 8, ptr nonnull %2)
  ret void
}